target datalayout = "e-m:e-p270:32:32-p271:32:32-p272:64:64-i64:64-i128:128-f80:128-n8:16:32:64-S128"
target triple = "x86_64-pc-linux-gnu"

%"class.cv::ap3p" = type { double, double, double, double, double, double, double, double }

; Function Attrs: mustprogress nounwind uwtable
define hidden void @_ZN2cv4ap3p23init_inverse_parametersEv(ptr noundef nonnull align 8 dereferenceable(64) %0) #4 align 2 {
  %2 = alloca ptr, align 8
  store ptr %0, ptr %2, align 8, !tbaa !3
  %3 = load ptr, ptr %2, align 8
  %4 = getelementptr inbounds nuw %"class.cv::ap3p", ptr %3, i32 0, i32 0
  %5 = load double, ptr %4, align 8, !tbaa !8
  %6 = fdiv double 1.000000e+00, %5
  %7 = getelementptr inbounds nuw %"class.cv::ap3p", ptr %3, i32 0, i32 4
  store double %6, ptr %7, align 8, !tbaa !11
  %8 = getelementptr inbounds nuw %"class.cv::ap3p", ptr %3, i32 0, i32 1
  %9 = load double, ptr %8, align 8, !tbaa !12
  %10 = fdiv double 1.000000e+00, %9
  %11 = getelementptr inbounds nuw %"class.cv::ap3p", ptr %3, i32 0, i32 5
  store double %10, ptr %11, align 8, !tbaa !13
  %12 = getelementptr inbounds nuw %"class.cv::ap3p", ptr %3, i32 0, i32 2
  %13 = load double, ptr %12, align 8, !tbaa !14
  %14 = getelementptr inbounds nuw %"class.cv::ap3p", ptr %3, i32 0, i32 0
  %15 = load double, ptr %14, align 8, !tbaa !8
  %16 = fdiv double %13, %15
  %17 = getelementptr inbounds nuw %"class.cv::ap3p", ptr %3, i32 0, i32 6
  store double %16, ptr %17, align 8, !tbaa !15
  %18 = getelementptr inbounds nuw %"class.cv::ap3p", ptr %3, i32 0, i32 3
  %19 = load double, ptr %18, align 8, !tbaa !16
  %20 = getelementptr inbounds nuw %"class.cv::ap3p", ptr %3, i32 0, i32 1
  %21 = load double, ptr %20, align 8, !tbaa !12
  %22 = fdiv double %19, %21
  %23 = getelementptr inbounds nuw %"class.cv::ap3p", ptr %3, i32 0, i32 7
  store double %22, ptr %23, align 8, !tbaa !17
  ret void
}