; Function Attrs: mustprogress nofree norecurse nosync nounwind willreturn memory(argmem: readwrite) uwtable
define hidden void @_ZN2cv4ap3p23init_inverse_parametersEv(ptr noundef nonnull align 8 captures(none) dereferenceable(64) initializes((32, 64)) %0) local_unnamed_addr #3 align 2 {
  %2 = load double, ptr %0, align 8, !tbaa !3
  %3 = fdiv double 1.000000e+00, %2
  %4 = getelementptr inbounds nuw i8, ptr %0, i64 32
  store double %3, ptr %4, align 8, !tbaa !8
  %5 = getelementptr inbounds nuw i8, ptr %0, i64 8
  %6 = load double, ptr %5, align 8, !tbaa !9
  %7 = fdiv double 1.000000e+00, %6
  %8 = getelementptr inbounds nuw i8, ptr %0, i64 40
  store double %7, ptr %8, align 8, !tbaa !10
  %9 = getelementptr inbounds nuw i8, ptr %0, i64 16
  %10 = load double, ptr %9, align 8, !tbaa !11
  %11 = fdiv double %10, %2
  %12 = getelementptr inbounds nuw i8, ptr %0, i64 48
  store double %11, ptr %12, align 8, !tbaa !12
  %13 = getelementptr inbounds nuw i8, ptr %0, i64 24
  %14 = load double, ptr %13, align 8, !tbaa !13
  %15 = fdiv double %14, %6
  %16 = getelementptr inbounds nuw i8, ptr %0, i64 56
  store double %15, ptr %16, align 8, !tbaa !14
  ret void
}